target datalayout = "e-m:e-p270:32:32-p271:32:32-p272:64:64-i64:64-i128:128-f80:128-n8:16:32:64-S128"
target triple = "x86_64-unknown-linux-gnu"

%"class.std::__cxx11::basic_string" = type { %"struct.std::__cxx11::basic_string<char>::_Alloc_hider", i64, %union.anon }
%"struct.std::__cxx11::basic_string<char>::_Alloc_hider" = type { ptr }
%union.anon = type { i64, [8 x i8] }
%"struct.std::pair.4" = type { i64, i64 }

; Function Attrs: mustprogress nounwind uwtable
define linkonce_odr void @_ZNSt4pairImmEC2IRmS2_TnNSt9enable_ifIXaaclsr5_PCCPE22_MoveConstructiblePairIT_T0_EEclsr5_PCCPE30_ImplicitlyMoveConvertiblePairIS4_S5_EEEbE4typeELb1EEEOS4_OS5_(ptr noundef nonnull align 8 dereferenceable(16) %this, ptr noundef nonnull align 8 dereferenceable(8) %__x, ptr noundef nonnull align 8 dereferenceable(8) %__y) unnamed_addr #4 comdat align 2 {
entry:
  %this.addr = alloca ptr, align 8
  %__x.addr = alloca ptr, align 8
  %__y.addr = alloca ptr, align 8
  store ptr %this, ptr %this.addr, align 8
  store ptr %__x, ptr %__x.addr, align 8
  store ptr %__y, ptr %__y.addr, align 8
  %this1 = load ptr, ptr %this.addr, align 8
  %first = getelementptr inbounds %"struct.std::pair.4", ptr %this1, i32 0, i32 0
  %0 = load ptr, ptr %__x.addr, align 8
  %1 = load i64, ptr %0, align 8
  store i64 %1, ptr %first, align 8
  %second = getelementptr inbounds %"struct.std::pair.4", ptr %this1, i32 0, i32 1
  %2 = load ptr, ptr %__y.addr, align 8
  %3 = load i64, ptr %2, align 8
  store i64 %3, ptr %second, align 8
  ret void
}

; Function Attrs: mustprogress uwtable
define linkonce_odr { i64, i64 } @_ZSt9make_pairIRmS0_ESt4pairINSt25__strip_reference_wrapperINSt5decayIT_E4typeEE6__typeENS2_INS3_IT0_E4typeEE6__typeEEOS4_OS9_(ptr noundef nonnull align 8 dereferenceable(8) %__x, ptr noundef nonnull align 8 dereferenceable(8) %__y) #6 comdat {
entry:
  %retval = alloca %"struct.std::pair.4", align 8
  %__x.addr = alloca ptr, align 8
  %__y.addr = alloca ptr, align 8
  store ptr %__x, ptr %__x.addr, align 8
  store ptr %__y, ptr %__y.addr, align 8
  %0 = load ptr, ptr %__x.addr, align 8
  %1 = load ptr, ptr %__y.addr, align 8
  call void @_ZNSt4pairImmEC2IRmS2_TnNSt9enable_ifIXaaclsr5_PCCPE22_MoveConstructiblePairIT_T0_EEclsr5_PCCPE30_ImplicitlyMoveConvertiblePairIS4_S5_EEEbE4typeELb1EEEOS4_OS5_(ptr noundef nonnull align 8 dereferenceable(16) %retval, ptr noundef nonnull align 8 dereferenceable(8) %0, ptr noundef nonnull align 8 dereferenceable(8) %1)
  %2 = load { i64, i64 }, ptr %retval, align 8
  ret { i64, i64 } %2
}

; Function Attrs: mustprogress nounwind uwtable
define noundef zeroext i1 @_ZN7httplib6detail15is_space_or_tabEc(i8 noundef signext %c) #4 {
entry:
  %c.addr = alloca i8, align 1
  store i8 %c, ptr %c.addr, align 1
  %0 = load i8, ptr %c.addr, align 1
  %conv = sext i8 %0 to i32
  %cmp = icmp eq i32 %conv, 32
  br i1 %cmp, label %lor.end, label %lor.rhs

lor.rhs:                                          ; preds = %entry
  %1 = load i8, ptr %c.addr, align 1
  %conv1 = sext i8 %1 to i32
  %cmp2 = icmp eq i32 %conv1, 9
  br label %lor.end

lor.end:                                          ; preds = %lor.rhs, %entry
  %2 = phi i1 [ true, %entry ], [ %cmp2, %lor.rhs ]
  ret i1 %2
}

; Function Attrs: mustprogress uwtable
define { i64, i64 } @_ZN7httplib6detail4trimEPKcS2_mm(ptr noundef %b, ptr noundef %e, i64 noundef %left, i64 noundef %right) #6 {
entry:
  %retval = alloca %"struct.std::pair.4", align 8
  %b.addr = alloca ptr, align 8
  %e.addr = alloca ptr, align 8
  %left.addr = alloca i64, align 8
  %right.addr = alloca i64, align 8
  store ptr %b, ptr %b.addr, align 8
  store ptr %e, ptr %e.addr, align 8
  store i64 %left, ptr %left.addr, align 8
  store i64 %right, ptr %right.addr, align 8
  br label %while.cond

while.cond:                                       ; preds = %while.body, %entry
  %0 = load ptr, ptr %b.addr, align 8
  %1 = load i64, ptr %left.addr, align 8
  %add.ptr = getelementptr inbounds i8, ptr %0, i64 %1
  %2 = load ptr, ptr %e.addr, align 8
  %cmp = icmp ult ptr %add.ptr, %2
  br i1 %cmp, label %land.rhs, label %land.end

land.rhs:                                         ; preds = %while.cond
  %3 = load ptr, ptr %b.addr, align 8
  %4 = load i64, ptr %left.addr, align 8
  %arrayidx = getelementptr inbounds i8, ptr %3, i64 %4
  %5 = load i8, ptr %arrayidx, align 1
  %call = call noundef zeroext i1 @_ZN7httplib6detail15is_space_or_tabEc(i8 noundef signext %5)
  br label %land.end

land.end:                                         ; preds = %land.rhs, %while.cond
  %6 = phi i1 [ false, %while.cond ], [ %call, %land.rhs ]
  br i1 %6, label %while.body, label %while.end

while.body:                                       ; preds = %land.end
  %7 = load i64, ptr %left.addr, align 8
  %inc = add i64 %7, 1
  store i64 %inc, ptr %left.addr, align 8
  br label %while.cond, !llvm.loop !16

while.end:                                        ; preds = %land.end
  br label %while.cond1

while.cond1:                                      ; preds = %while.body7, %while.end
  %8 = load i64, ptr %right.addr, align 8
  %cmp2 = icmp ugt i64 %8, 0
  br i1 %cmp2, label %land.rhs3, label %land.end6

land.rhs3:                                        ; preds = %while.cond1
  %9 = load ptr, ptr %b.addr, align 8
  %10 = load i64, ptr %right.addr, align 8
  %sub = sub i64 %10, 1
  %arrayidx4 = getelementptr inbounds i8, ptr %9, i64 %sub
  %11 = load i8, ptr %arrayidx4, align 1
  %call5 = call noundef zeroext i1 @_ZN7httplib6detail15is_space_or_tabEc(i8 noundef signext %11)
  br label %land.end6

land.end6:                                        ; preds = %land.rhs3, %while.cond1
  %12 = phi i1 [ false, %while.cond1 ], [ %call5, %land.rhs3 ]
  br i1 %12, label %while.body7, label %while.end8

while.body7:                                      ; preds = %land.end6
  %13 = load i64, ptr %right.addr, align 8
  %dec = add i64 %13, -1
  store i64 %dec, ptr %right.addr, align 8
  br label %while.cond1, !llvm.loop !17

while.end8:                                       ; preds = %land.end6
  %call9 = call { i64, i64 } @_ZSt9make_pairIRmS0_ESt4pairINSt25__strip_reference_wrapperINSt5decayIT_E4typeEE6__typeENS2_INS3_IT0_E4typeEE6__typeEEOS4_OS9_(ptr noundef nonnull align 8 dereferenceable(8) %left.addr, ptr noundef nonnull align 8 dereferenceable(8) %right.addr)
  %14 = getelementptr inbounds { i64, i64 }, ptr %retval, i32 0, i32 0
  %15 = extractvalue { i64, i64 } %call9, 0
  store i64 %15, ptr %14, align 8
  %16 = getelementptr inbounds { i64, i64 }, ptr %retval, i32 0, i32 1
  %17 = extractvalue { i64, i64 } %call9, 1
  store i64 %17, ptr %16, align 8
  %18 = load { i64, i64 }, ptr %retval, align 8
  ret { i64, i64 } %18
}

; Function Attrs: mustprogress uwtable
define void @_ZN7httplib6detail9trim_copyERKNSt7__cxx1112basic_stringIcSt11char_traitsIcESaIcEEE(ptr noalias sret(%"class.std::__cxx11::basic_string") align 8 %agg.result, ptr noundef nonnull align 8 dereferenceable(32) %s) #6 {
entry:
  %result.ptr = alloca ptr, align 8
  %s.addr = alloca ptr, align 8
  %r = alloca %"struct.std::pair.4", align 8
  store ptr %agg.result, ptr %result.ptr, align 8
  store ptr %s, ptr %s.addr, align 8
  %0 = load ptr, ptr %s.addr, align 8
  %call = call noundef ptr @_ZNKSt7__cxx1112basic_stringIcSt11char_traitsIcESaIcEE4dataEv(ptr noundef nonnull align 8 dereferenceable(32) %0) #3
  %1 = load ptr, ptr %s.addr, align 8
  %call1 = call noundef ptr @_ZNKSt7__cxx1112basic_stringIcSt11char_traitsIcESaIcEE4dataEv(ptr noundef nonnull align 8 dereferenceable(32) %1) #3
  %2 = load ptr, ptr %s.addr, align 8
  %call2 = call noundef i64 @_ZNKSt7__cxx1112basic_stringIcSt11char_traitsIcESaIcEE4sizeEv(ptr noundef nonnull align 8 dereferenceable(32) %2) #3
  %add.ptr = getelementptr inbounds i8, ptr %call1, i64 %call2
  %3 = load ptr, ptr %s.addr, align 8
  %call3 = call noundef i64 @_ZNKSt7__cxx1112basic_stringIcSt11char_traitsIcESaIcEE4sizeEv(ptr noundef nonnull align 8 dereferenceable(32) %3) #3
  %call4 = call { i64, i64 } @_ZN7httplib6detail4trimEPKcS2_mm(ptr noundef %call, ptr noundef %add.ptr, i64 noundef 0, i64 noundef %call3)
  %4 = getelementptr inbounds { i64, i64 }, ptr %r, i32 0, i32 0
  %5 = extractvalue { i64, i64 } %call4, 0
  store i64 %5, ptr %4, align 8
  %6 = getelementptr inbounds { i64, i64 }, ptr %r, i32 0, i32 1
  %7 = extractvalue { i64, i64 } %call4, 1
  store i64 %7, ptr %6, align 8
  %8 = load ptr, ptr %s.addr, align 8
  %first = getelementptr inbounds %"struct.std::pair.4", ptr %r, i32 0, i32 0
  %9 = load i64, ptr %first, align 8
  %second = getelementptr inbounds %"struct.std::pair.4", ptr %r, i32 0, i32 1
  %10 = load i64, ptr %second, align 8
  %first5 = getelementptr inbounds %"struct.std::pair.4", ptr %r, i32 0, i32 0
  %11 = load i64, ptr %first5, align 8
  %sub = sub i64 %10, %11
  call void @_ZNKSt7__cxx1112basic_stringIcSt11char_traitsIcESaIcEE6substrEmm(ptr sret(%"class.std::__cxx11::basic_string") align 8 %agg.result, ptr noundef nonnull align 8 dereferenceable(32) %8, i64 noundef %9, i64 noundef %sub)
  ret void
}