; Function Attrs: mustprogress uwtable
define void @_ZN7httplib6detail9trim_copyERKNSt7__cxx1112basic_stringIcSt11char_traitsIcESaIcEEE(ptr noalias sret(%"class.std::__cxx11::basic_string") align 8 %agg.result, ptr noundef nonnull align 8 dereferenceable(32) %s) local_unnamed_addr #5 {
entry:
  %call = tail call noundef ptr @_ZNKSt7__cxx1112basic_stringIcSt11char_traitsIcESaIcEE4dataEv(ptr noundef nonnull align 8 dereferenceable(32) %s) #37
  %call1 = tail call noundef ptr @_ZNKSt7__cxx1112basic_stringIcSt11char_traitsIcESaIcEE4dataEv(ptr noundef nonnull align 8 dereferenceable(32) %s) #37
  %call2 = tail call noundef i64 @_ZNKSt7__cxx1112basic_stringIcSt11char_traitsIcESaIcEE4sizeEv(ptr noundef nonnull align 8 dereferenceable(32) %s) #37
  %add.ptr = getelementptr inbounds i8, ptr %call1, i64 %call2
  %call3 = tail call noundef i64 @_ZNKSt7__cxx1112basic_stringIcSt11char_traitsIcESaIcEE4sizeEv(ptr noundef nonnull align 8 dereferenceable(32) %s) #37
  %cmp10.i = icmp ult ptr %call, %add.ptr
  br i1 %cmp10.i, label %land.rhs.preheader.i, label %while.end.i

land.rhs.preheader.i:                             ; preds = %entry
  %e18.i = ptrtoint ptr %add.ptr to i64
  %b19.i = ptrtoint ptr %call to i64
  %0 = sub i64 %e18.i, %b19.i
  br label %land.rhs.i

land.rhs.i:                                       ; preds = %while.body.i, %land.rhs.preheader.i
  %left.addr.011.i = phi i64 [ %inc.i, %while.body.i ], [ 0, %land.rhs.preheader.i ]
  %add.ptr12.i = getelementptr inbounds i8, ptr %call, i64 %left.addr.011.i
  %1 = load i8, ptr %add.ptr12.i, align 1
  switch i8 %1, label %while.end.i [
    i8 32, label %while.body.i
    i8 9, label %while.body.i
  ]

while.body.i:                                     ; preds = %land.rhs.i, %land.rhs.i
  %inc.i = add i64 %left.addr.011.i, 1
  %add.ptr.i = getelementptr inbounds i8, ptr %call, i64 %inc.i
  %cmp.i = icmp ult ptr %add.ptr.i, %add.ptr
  br i1 %cmp.i, label %land.rhs.i, label %while.end.i, !llvm.loop !16

while.end.i:                                      ; preds = %while.body.i, %land.rhs.i, %entry
  %left.addr.0.lcssa.i = phi i64 [ 0, %entry ], [ %0, %while.body.i ], [ %left.addr.011.i, %land.rhs.i ]
  %invariant.gep.i = getelementptr i8, ptr %call, i64 -1
  %cmp2.not14.i = icmp eq i64 %call3, 0
  br i1 %cmp2.not14.i, label %_ZN7httplib6detail4trimEPKcS2_mm.exit, label %land.rhs3.i

land.rhs3.i:                                      ; preds = %while.end.i, %while.body7.i
  %right.addr.015.i = phi i64 [ %dec.i, %while.body7.i ], [ %call3, %while.end.i ]
  %gep.i = getelementptr i8, ptr %invariant.gep.i, i64 %right.addr.015.i
  %2 = load i8, ptr %gep.i, align 1
  switch i8 %2, label %_ZN7httplib6detail4trimEPKcS2_mm.exit [
    i8 32, label %while.body7.i
    i8 9, label %while.body7.i
  ]

while.body7.i:                                    ; preds = %land.rhs3.i, %land.rhs3.i
  %dec.i = add i64 %right.addr.015.i, -1
  %cmp2.not.i = icmp eq i64 %dec.i, 0
  br i1 %cmp2.not.i, label %_ZN7httplib6detail4trimEPKcS2_mm.exit, label %land.rhs3.i, !llvm.loop !17

_ZN7httplib6detail4trimEPKcS2_mm.exit:            ; preds = %land.rhs3.i, %while.body7.i, %while.end.i
  %right.addr.0.lcssa.i = phi i64 [ 0, %while.end.i ], [ 0, %while.body7.i ], [ %right.addr.015.i, %land.rhs3.i ]
  %sub = sub i64 %right.addr.0.lcssa.i, %left.addr.0.lcssa.i
  tail call void @_ZNKSt7__cxx1112basic_stringIcSt11char_traitsIcESaIcEE6substrEmm(ptr sret(%"class.std::__cxx11::basic_string") align 8 %agg.result, ptr noundef nonnull align 8 dereferenceable(32) %s, i64 noundef %left.addr.0.lcssa.i, i64 noundef %sub)
  ret void
}